target datalayout = "e-m:e-p270:32:32-p271:32:32-p272:64:64-i64:64-i128:128-f80:128-n8:16:32:64-S128"
target triple = "x86_64-pc-linux-gnu"

%struct.ctlog_store_st = type { ptr, ptr, ptr }

@.str = private unnamed_addr constant [30 x i8] c"../openssl/crypto/ct/ct_log.c\00", align 1
@__func__.CTLOG_STORE_new_ex = private unnamed_addr constant [19 x i8] c"CTLOG_STORE_new_ex\00", align 1

; Function Attrs: inlinehint nounwind uwtable
define internal ptr @ossl_check_CTLOG_freefunc_type(ptr noundef %0) #3 {
  %2 = alloca ptr, align 8
  store ptr %0, ptr %2, align 8, !tbaa !18
  %3 = load ptr, ptr %2, align 8, !tbaa !18
  ret ptr %3
}

; Function Attrs: inlinehint nounwind uwtable
define internal ptr @ossl_check_CTLOG_sk_type(ptr noundef %0) #3 {
  %2 = alloca ptr, align 8
  store ptr %0, ptr %2, align 8, !tbaa !17
  %3 = load ptr, ptr %2, align 8, !tbaa !17
  ret ptr %3
}

; Function Attrs: nounwind uwtable
define void @CTLOG_STORE_free(ptr noundef %0) #0 {
  %2 = alloca ptr, align 8
  store ptr %0, ptr %2, align 8, !tbaa !10
  %3 = load ptr, ptr %2, align 8, !tbaa !10
  %4 = icmp ne ptr %3, null
  br i1 %4, label %5, label %15

5:                                                ; preds = %1
  %6 = load ptr, ptr %2, align 8, !tbaa !10
  %7 = getelementptr inbounds nuw %struct.ctlog_store_st, ptr %6, i32 0, i32 1
  %8 = load ptr, ptr %7, align 8, !tbaa !15
  call void @CRYPTO_free(ptr noundef %8, ptr noundef @.str, i32 noundef 134)
  %9 = load ptr, ptr %2, align 8, !tbaa !10
  %10 = getelementptr inbounds nuw %struct.ctlog_store_st, ptr %9, i32 0, i32 2
  %11 = load ptr, ptr %10, align 8, !tbaa !16
  %12 = call ptr @ossl_check_CTLOG_sk_type(ptr noundef %11)
  %13 = call ptr @ossl_check_CTLOG_freefunc_type(ptr noundef @CTLOG_free)
  call void @OPENSSL_sk_pop_free(ptr noundef %12, ptr noundef %13)
  %14 = load ptr, ptr %2, align 8, !tbaa !10
  call void @CRYPTO_free(ptr noundef %14, ptr noundef @.str, i32 noundef 136)
  br label %15

15:                                               ; preds = %5, %1
  ret void
}

; Function Attrs: nounwind uwtable
define ptr @CTLOG_STORE_new_ex(ptr noundef %0, ptr noundef %1) #0 {
  %3 = alloca ptr, align 8
  %4 = alloca ptr, align 8
  %5 = alloca ptr, align 8
  %6 = alloca ptr, align 8
  %7 = alloca i32, align 4
  store ptr %0, ptr %4, align 8, !tbaa !3
  store ptr %1, ptr %5, align 8, !tbaa !8
  call void @llvm.lifetime.start.p0(i64 8, ptr %6) #5
  %8 = call noalias ptr @CRYPTO_zalloc(i64 noundef 24, ptr noundef @.str, i32 noundef 102)
  store ptr %8, ptr %6, align 8, !tbaa !10
  %9 = load ptr, ptr %6, align 8, !tbaa !10
  %10 = icmp eq ptr %9, null
  br i1 %10, label %11, label %12

11:                                               ; preds = %2
  store ptr null, ptr %3, align 8
  store i32 1, ptr %7, align 4
  br label %42

12:                                               ; preds = %2
  %13 = load ptr, ptr %4, align 8, !tbaa !3
  %14 = load ptr, ptr %6, align 8, !tbaa !10
  %15 = getelementptr inbounds nuw %struct.ctlog_store_st, ptr %14, i32 0, i32 0
  store ptr %13, ptr %15, align 8, !tbaa !12
  %16 = load ptr, ptr %5, align 8, !tbaa !8
  %17 = icmp ne ptr %16, null
  br i1 %17, label %18, label %29

18:                                               ; preds = %12
  %19 = load ptr, ptr %5, align 8, !tbaa !8
  %20 = call noalias ptr @CRYPTO_strdup(ptr noundef %19, ptr noundef @.str, i32 noundef 109)
  %21 = load ptr, ptr %6, align 8, !tbaa !10
  %22 = getelementptr inbounds nuw %struct.ctlog_store_st, ptr %21, i32 0, i32 1
  store ptr %20, ptr %22, align 8, !tbaa !15
  %23 = load ptr, ptr %6, align 8, !tbaa !10
  %24 = getelementptr inbounds nuw %struct.ctlog_store_st, ptr %23, i32 0, i32 1
  %25 = load ptr, ptr %24, align 8, !tbaa !15
  %26 = icmp eq ptr %25, null
  br i1 %26, label %27, label %28

27:                                               ; preds = %18
  br label %40

28:                                               ; preds = %18
  br label %29

29:                                               ; preds = %28, %12
  %30 = call ptr @OPENSSL_sk_new_null()
  %31 = load ptr, ptr %6, align 8, !tbaa !10
  %32 = getelementptr inbounds nuw %struct.ctlog_store_st, ptr %31, i32 0, i32 2
  store ptr %30, ptr %32, align 8, !tbaa !16
  %33 = load ptr, ptr %6, align 8, !tbaa !10
  %34 = getelementptr inbounds nuw %struct.ctlog_store_st, ptr %33, i32 0, i32 2
  %35 = load ptr, ptr %34, align 8, !tbaa !16
  %36 = icmp eq ptr %35, null
  br i1 %36, label %37, label %38

37:                                               ; preds = %29
  call void @ERR_new()
  call void @ERR_set_debug(ptr noundef @.str, i32 noundef 116, ptr noundef @__func__.CTLOG_STORE_new_ex)
  call void (i32, i32, ptr, ...) @ERR_set_error(i32 noundef 50, i32 noundef 524303, ptr noundef null)
  br label %40

38:                                               ; preds = %29
  %39 = load ptr, ptr %6, align 8, !tbaa !10
  store ptr %39, ptr %3, align 8
  store i32 1, ptr %7, align 4
  br label %42

40:                                               ; preds = %37, %27
  %41 = load ptr, ptr %6, align 8, !tbaa !10
  call void @CTLOG_STORE_free(ptr noundef %41)
  store ptr null, ptr %3, align 8
  store i32 1, ptr %7, align 4
  br label %42

42:                                               ; preds = %40, %38, %11
  call void @llvm.lifetime.end.p0(i64 8, ptr %6) #5
  %43 = load ptr, ptr %3, align 8
  ret ptr %43
}