; Function Attrs: nounwind uwtable
define ptr @CTLOG_STORE_new_ex(ptr noundef %0, ptr noundef %1) local_unnamed_addr #0 {
  %3 = tail call noalias ptr @CRYPTO_zalloc(i64 noundef 24, ptr noundef nonnull @.str, i32 noundef 102) #6
  %4 = icmp eq ptr %3, null
  br i1 %4, label %18, label %5

5:                                                ; preds = %2
  store ptr %0, ptr %3, align 8, !tbaa !3
  %.not = icmp eq ptr %1, null
  br i1 %.not, label %10, label %6

6:                                                ; preds = %5
  %7 = tail call noalias ptr @CRYPTO_strdup(ptr noundef nonnull %1, ptr noundef nonnull @.str, i32 noundef 109) #6
  %8 = getelementptr inbounds nuw i8, ptr %3, i64 8
  store ptr %7, ptr %8, align 8, !tbaa !11
  %9 = icmp eq ptr %7, null
  br i1 %9, label %CTLOG_STORE_free.exit, label %10

10:                                               ; preds = %6, %5
  %11 = tail call ptr @OPENSSL_sk_new_null() #6
  %12 = getelementptr inbounds nuw i8, ptr %3, i64 16
  store ptr %11, ptr %12, align 8, !tbaa !12
  %13 = icmp eq ptr %11, null
  br i1 %13, label %14, label %18

14:                                               ; preds = %10
  tail call void @ERR_new() #6
  tail call void @ERR_set_debug(ptr noundef nonnull @.str, i32 noundef 116, ptr noundef nonnull @__func__.CTLOG_STORE_new_ex) #6
  tail call void (i32, i32, ptr, ...) @ERR_set_error(i32 noundef 50, i32 noundef 524303, ptr noundef null) #6
  %.phi.trans.insert = getelementptr inbounds nuw i8, ptr %3, i64 8
  %.pre = load ptr, ptr %.phi.trans.insert, align 8, !tbaa !11
  br label %CTLOG_STORE_free.exit

CTLOG_STORE_free.exit:                            ; preds = %6, %14
  %15 = phi ptr [ null, %6 ], [ %.pre, %14 ]
  tail call void @CRYPTO_free(ptr noundef %15, ptr noundef nonnull @.str, i32 noundef 134) #6
  %16 = getelementptr inbounds nuw i8, ptr %3, i64 16
  %17 = load ptr, ptr %16, align 8, !tbaa !12
  tail call void @OPENSSL_sk_pop_free(ptr noundef %17, ptr noundef nonnull @CTLOG_free) #6
  tail call void @CRYPTO_free(ptr noundef nonnull %3, ptr noundef nonnull @.str, i32 noundef 136) #6
  br label %18

18:                                               ; preds = %10, %2, %CTLOG_STORE_free.exit
  %.0 = phi ptr [ null, %CTLOG_STORE_free.exit ], [ null, %2 ], [ %3, %10 ]
  ret ptr %.0
}